target datalayout = "e-m:e-p270:32:32-p271:32:32-p272:64:64-i64:64-i128:128-f80:128-n8:16:32:64-S128"
target triple = "x86_64-unknown-linux-gnu"

; Function Attrs: mustprogress nounwind uwtable
define noundef i32 @_ZN6icu_7524tokenTypeToPluralOperandENS_9tokenTypeE(i32 noundef %tt) #0 {
entry:
  %retval = alloca i32, align 4
  %tt.addr = alloca i32, align 4
  store i32 %tt, ptr %tt.addr, align 4
  %0 = load i32, ptr %tt.addr, align 4
  switch i32 %0, label %sw.default [
    i32 21, label %sw.bb
    i32 22, label %sw.bb1
    i32 23, label %sw.bb2
    i32 24, label %sw.bb3
    i32 25, label %sw.bb4
    i32 26, label %sw.bb5
    i32 27, label %sw.bb6
  ]

sw.bb:                                            ; preds = %entry
  store i32 0, ptr %retval, align 4
  br label %return

sw.bb1:                                           ; preds = %entry
  store i32 1, ptr %retval, align 4
  br label %return

sw.bb2:                                           ; preds = %entry
  store i32 2, ptr %retval, align 4
  br label %return

sw.bb3:                                           ; preds = %entry
  store i32 4, ptr %retval, align 4
  br label %return

sw.bb4:                                           ; preds = %entry
  store i32 3, ptr %retval, align 4
  br label %return

sw.bb5:                                           ; preds = %entry
  store i32 6, ptr %retval, align 4
  br label %return

sw.bb6:                                           ; preds = %entry
  store i32 6, ptr %retval, align 4
  br label %return

sw.default:                                       ; preds = %entry
  call void @abort() #15
  unreachable

return:                                           ; preds = %sw.bb6, %sw.bb5, %sw.bb4, %sw.bb3, %sw.bb2, %sw.bb1, %sw.bb
  %1 = load i32, ptr %retval, align 4
  ret i32 %1
}