; Function Attrs: mustprogress nounwind uwtable
define noundef i32 @_ZN6icu_7524tokenTypeToPluralOperandENS_9tokenTypeE(i32 noundef %tt) local_unnamed_addr #0 {
entry:
  %switch.tableidx = add i32 %tt, -21
  %0 = icmp ult i32 %switch.tableidx, 7
  br i1 %0, label %switch.lookup, label %sw.default

sw.default:                                       ; preds = %entry
  tail call void @abort() #27
  unreachable

switch.lookup:                                    ; preds = %entry
  %1 = zext nneg i32 %switch.tableidx to i64
  %switch.gep = getelementptr inbounds [7 x i32], ptr @switch.table._ZN6icu_7524tokenTypeToPluralOperandENS_9tokenTypeE, i64 0, i64 %1
  %switch.load = load i32, ptr %switch.gep, align 4
  ret i32 %switch.load
}